target datalayout = "e-m:e-p270:32:32-p271:32:32-p272:64:64-i64:64-i128:128-f80:128-n8:16:32:64-S128"
target triple = "x86_64-pc-linux-gnu"

%"class.llvm::MCSubtargetInfo" = type { ptr, %"class.llvm::Triple", %"class.std::__cxx11::basic_string", %"class.std::__cxx11::basic_string", %"class.llvm::ArrayRef", %"class.llvm::ArrayRef.23", ptr, ptr, ptr, ptr, ptr, ptr, ptr, %"class.llvm::FeatureBitset", %"class.std::__cxx11::basic_string" }
%"class.llvm::Triple" = type { %"class.std::__cxx11::basic_string", i32, i32, i32, i32, i32, i32 }
%"class.llvm::ArrayRef" = type { ptr, i64 }
%"class.llvm::ArrayRef.23" = type { ptr, i64 }
%"class.llvm::FeatureBitset" = type { %"struct.std::array" }
%"struct.std::array" = type { [5 x i64] }
%"class.std::__cxx11::basic_string" = type { %"struct.std::__cxx11::basic_string<char>::_Alloc_hider", i64, %union.anon }
%"struct.std::__cxx11::basic_string<char>::_Alloc_hider" = type { ptr }
%union.anon = type { i64, [8 x i8] }

; Function Attrs: mustprogress nounwind uwtable
define linkonce_odr hidden noundef nonnull align 8 dereferenceable(8) ptr @_ZNSt14__array_traitsImLm5EE6_S_refERA5_Kmm(ptr noundef nonnull align 8 dereferenceable(40) %0, i64 noundef %1) #1 comdat align 2 {
  %3 = alloca ptr, align 8
  %4 = alloca i64, align 8
  store ptr %0, ptr %3, align 8
  store i64 %1, ptr %4, align 8
  %5 = load ptr, ptr %3, align 8
  %6 = load i64, ptr %4, align 8
  %7 = getelementptr inbounds [5 x i64], ptr %5, i64 0, i64 %6
  ret ptr %7
}

; Function Attrs: mustprogress nounwind uwtable
define linkonce_odr hidden noundef nonnull align 8 dereferenceable(8) ptr @_ZNKSt5arrayImLm5EEixEm(ptr noundef nonnull align 8 dereferenceable(40) %0, i64 noundef %1) #1 comdat align 2 {
  %3 = alloca ptr, align 8
  %4 = alloca i64, align 8
  store ptr %0, ptr %3, align 8
  store i64 %1, ptr %4, align 8
  %5 = load ptr, ptr %3, align 8
  %6 = getelementptr inbounds nuw %"struct.std::array", ptr %5, i32 0, i32 0
  %7 = load i64, ptr %4, align 8
  %8 = call noundef nonnull align 8 dereferenceable(8) ptr @_ZNSt14__array_traitsImLm5EE6_S_refERA5_Kmm(ptr noundef nonnull align 8 dereferenceable(40) %6, i64 noundef %7) #2
  ret ptr %8
}

; Function Attrs: mustprogress nounwind uwtable
define linkonce_odr hidden noundef zeroext i1 @_ZNK4llvm13FeatureBitsetixEj(ptr noundef nonnull align 8 dereferenceable(40) %0, i32 noundef %1) #1 comdat align 2 {
  %3 = alloca ptr, align 8
  %4 = alloca i32, align 4
  %5 = alloca i64, align 8
  store ptr %0, ptr %3, align 8
  store i32 %1, ptr %4, align 4
  %6 = load ptr, ptr %3, align 8
  %7 = load i32, ptr %4, align 4
  %8 = urem i32 %7, 64
  %9 = zext i32 %8 to i64
  %10 = shl i64 1, %9
  store i64 %10, ptr %5, align 8
  %11 = getelementptr inbounds nuw %"class.llvm::FeatureBitset", ptr %6, i32 0, i32 0
  %12 = load i32, ptr %4, align 4
  %13 = udiv i32 %12, 64
  %14 = zext i32 %13 to i64
  %15 = call noundef nonnull align 8 dereferenceable(8) ptr @_ZNKSt5arrayImLm5EEixEm(ptr noundef nonnull align 8 dereferenceable(40) %11, i64 noundef %14) #2
  %16 = load i64, ptr %15, align 8
  %17 = load i64, ptr %5, align 8
  %18 = and i64 %16, %17
  %19 = icmp ne i64 %18, 0
  ret i1 %19
}

; Function Attrs: mustprogress nounwind uwtable
define linkonce_odr hidden noundef zeroext i1 @_ZNK4llvm15MCSubtargetInfo10hasFeatureEj(ptr noundef nonnull align 8 dereferenceable(288) %0, i32 noundef %1) #1 comdat align 2 {
  %3 = alloca ptr, align 8
  %4 = alloca i32, align 4
  store ptr %0, ptr %3, align 8
  store i32 %1, ptr %4, align 4
  %5 = load ptr, ptr %3, align 8
  %6 = getelementptr inbounds nuw %"class.llvm::MCSubtargetInfo", ptr %5, i32 0, i32 13
  %7 = load i32, ptr %4, align 4
  %8 = call noundef zeroext i1 @_ZNK4llvm13FeatureBitsetixEj(ptr noundef nonnull align 8 dereferenceable(40) %6, i32 noundef %7)
  ret i1 %8
}

; Function Attrs: mustprogress nounwind uwtable
define internal noundef i32 @_ZNK12_GLOBAL__N_113X86AsmBackend17getMaximumNopSizeERKN4llvm15MCSubtargetInfoE(ptr noundef nonnull align 8 dereferenceable(201) %0, ptr noundef nonnull align 8 dereferenceable(288) %1) unnamed_addr #1 align 2 {
  %3 = alloca i32, align 4
  %4 = alloca ptr, align 8
  %5 = alloca ptr, align 8
  store ptr %0, ptr %4, align 8
  store ptr %1, ptr %5, align 8
  %6 = load ptr, ptr %5, align 8
  %7 = call noundef zeroext i1 @_ZNK4llvm15MCSubtargetInfo10hasFeatureEj(ptr noundef nonnull align 8 dereferenceable(288) %6, i32 noundef 129)
  br i1 %7, label %8, label %9

8:                                                ; preds = %2
  store i32 4, ptr %3, align 4
  br label %29

9:                                                ; preds = %2
  %10 = load ptr, ptr %5, align 8
  %11 = call noundef zeroext i1 @_ZNK4llvm15MCSubtargetInfo10hasFeatureEj(ptr noundef nonnull align 8 dereferenceable(288) %10, i32 noundef 67)
  br i1 %11, label %16, label %12

12:                                               ; preds = %9
  %13 = load ptr, ptr %5, align 8
  %14 = call noundef zeroext i1 @_ZNK4llvm15MCSubtargetInfo10hasFeatureEj(ptr noundef nonnull align 8 dereferenceable(288) %13, i32 noundef 131)
  br i1 %14, label %16, label %15

15:                                               ; preds = %12
  store i32 1, ptr %3, align 4
  br label %29

16:                                               ; preds = %12, %9
  %17 = load ptr, ptr %5, align 8
  %18 = call noundef zeroext i1 @_ZNK4llvm15MCSubtargetInfo10hasFeatureEj(ptr noundef nonnull align 8 dereferenceable(288) %17, i32 noundef 136)
  br i1 %18, label %19, label %20

19:                                               ; preds = %16
  store i32 7, ptr %3, align 4
  br label %29

20:                                               ; preds = %16
  %21 = load ptr, ptr %5, align 8
  %22 = call noundef zeroext i1 @_ZNK4llvm15MCSubtargetInfo10hasFeatureEj(ptr noundef nonnull align 8 dereferenceable(288) %21, i32 noundef 138)
  br i1 %22, label %23, label %24

23:                                               ; preds = %20
  store i32 15, ptr %3, align 4
  br label %29

24:                                               ; preds = %20
  %25 = load ptr, ptr %5, align 8
  %26 = call noundef zeroext i1 @_ZNK4llvm15MCSubtargetInfo10hasFeatureEj(ptr noundef nonnull align 8 dereferenceable(288) %25, i32 noundef 137)
  br i1 %26, label %27, label %28

27:                                               ; preds = %24
  store i32 11, ptr %3, align 4
  br label %29

28:                                               ; preds = %24
  store i32 10, ptr %3, align 4
  br label %29

29:                                               ; preds = %28, %27, %23, %19, %15, %8
  %30 = load i32, ptr %3, align 4
  ret i32 %30
}