; Function Attrs: mustprogress nofree norecurse nosync nounwind willreturn memory(argmem: read) uwtable
define internal noundef range(i32 1, 16) i32 @_ZNK12_GLOBAL__N_113X86AsmBackend17getMaximumNopSizeERKN4llvm15MCSubtargetInfoE(ptr nocapture nonnull readnone align 8 %0, ptr nocapture noundef nonnull readonly align 8 dereferenceable(288) %1) unnamed_addr #13 align 2 {
  %3 = getelementptr inbounds i8, ptr %1, i64 232
  %4 = load i64, ptr %3, align 8
  %5 = and i64 %4, 2
  %.not = icmp eq i64 %5, 0
  br i1 %.not, label %6, label %17

6:                                                ; preds = %2
  %7 = getelementptr inbounds i8, ptr %1, i64 224
  %8 = load i64, ptr %7, align 8
  %9 = or i64 %8, %4
  %10 = and i64 %9, 8
  %or.cond.not = icmp eq i64 %10, 0
  br i1 %or.cond.not, label %17, label %11

11:                                               ; preds = %6
  %12 = and i64 %4, 256
  %.not7 = icmp eq i64 %12, 0
  br i1 %.not7, label %13, label %17

13:                                               ; preds = %11
  %14 = and i64 %4, 1024
  %.not8 = icmp eq i64 %14, 0
  br i1 %.not8, label %15, label %17

15:                                               ; preds = %13
  %16 = and i64 %4, 512
  %.not9 = icmp eq i64 %16, 0
  %. = select i1 %.not9, i32 10, i32 11
  br label %17

17:                                               ; preds = %6, %15, %13, %11, %2
  %.0 = phi i32 [ 4, %2 ], [ 7, %11 ], [ 15, %13 ], [ %., %15 ], [ 1, %6 ]
  ret i32 %.0
}